; Function Attrs: nounwind uwtable
define dso_local void @cost_tablefuncscan(ptr noundef captures(none) initializes((40, 48)) %0, ptr noundef %1, ptr noundef readonly captures(none) %2, ptr noundef readonly captures(address_is_null) %3) local_unnamed_addr #2 {
  %5 = alloca %struct.cost_qual_eval_context, align 8
  %6 = alloca %struct.cost_qual_eval_context, align 8
  %7 = getelementptr inbounds nuw i8, ptr %1, i64 72
  %8 = load ptr, ptr %7, align 8
  %.not = icmp eq ptr %8, null
  br i1 %.not, label %14, label %9

9:                                                ; preds = %4
  %10 = getelementptr inbounds nuw i8, ptr %2, i64 112
  %11 = load i32, ptr %10, align 8
  %12 = zext i32 %11 to i64
  %13 = getelementptr inbounds nuw ptr, ptr %8, i64 %12
  br label %25

14:                                               ; preds = %4
  %15 = getelementptr inbounds nuw i8, ptr %1, i64 8
  %16 = load ptr, ptr %15, align 8
  %17 = getelementptr inbounds nuw i8, ptr %16, i64 64
  %18 = load ptr, ptr %17, align 8
  %19 = getelementptr inbounds nuw i8, ptr %2, i64 112
  %20 = load i32, ptr %19, align 8
  %21 = add i32 %20, -1
  %22 = getelementptr i8, ptr %18, i64 16
  %.val = load ptr, ptr %22, align 8
  %23 = sext i32 %21 to i64
  %24 = getelementptr inbounds %union.ListCell, ptr %.val, i64 %23
  br label %25

25:                                               ; preds = %14, %9
  %.in = phi ptr [ %13, %9 ], [ %24, %14 ]
  %26 = load ptr, ptr %.in, align 8
  %.not32 = icmp eq ptr %3, null
  %spec.select = select i1 %.not32, ptr %2, ptr %3
  %.sink.in = getelementptr inbounds nuw i8, ptr %spec.select, i64 16
  %.sink = load double, ptr %.sink.in, align 8
  %27 = getelementptr inbounds nuw i8, ptr %0, i64 40
  store double %.sink, ptr %27, align 8
  %28 = getelementptr inbounds nuw i8, ptr %26, i64 128
  %29 = load ptr, ptr %28, align 8
  call void @llvm.lifetime.start.p0(i64 24, ptr nonnull %6) #17
  store ptr %1, ptr %6, align 8
  %30 = getelementptr inbounds nuw i8, ptr %6, i64 8
  call void @llvm.memset.p0.i64(ptr noundef nonnull align 8 dereferenceable(16) %30, i8 0, i64 16, i1 false)
  %31 = call zeroext i1 @cost_qual_eval_walker(ptr noundef %29, ptr noundef nonnull %6)
  %.sroa.0.0.copyload = load double, ptr %30, align 8
  %.sroa.4.0..sroa_idx = getelementptr inbounds nuw i8, ptr %6, i64 16
  %.sroa.4.0.copyload = load double, ptr %.sroa.4.0..sroa_idx, align 8
  call void @llvm.lifetime.end.p0(i64 24, ptr nonnull %6) #17
  br i1 %.not32, label %53, label %32

32:                                               ; preds = %25
  %33 = getelementptr inbounds nuw i8, ptr %3, i64 24
  %34 = load ptr, ptr %33, align 8
  call void @llvm.lifetime.start.p0(i64 24, ptr nonnull %5) #17
  store ptr %1, ptr %5, align 8
  %35 = getelementptr inbounds nuw i8, ptr %5, i64 8
  %36 = getelementptr inbounds nuw i8, ptr %34, i64 4
  %.not.i.i = icmp eq ptr %34, null
  call void @llvm.memset.p0.i64(ptr noundef nonnull align 8 dereferenceable(16) %35, i8 0, i64 16, i1 false)
  br i1 %.not.i.i, label %cost_qual_eval.exit.i, label %.lr.ph.i.i

.lr.ph.i.i:                                       ; preds = %32
  %37 = getelementptr inbounds nuw i8, ptr %34, i64 16
  %38 = load i32, ptr %36, align 4
  %39 = icmp sgt i32 %38, 0
  br i1 %39, label %.lr.ph16.i.i, label %cost_qual_eval.exit.i

.lr.ph16.i.i:                                     ; preds = %.lr.ph.i.i, %.lr.ph16.i.i
  %indvars.iv.i.i = phi i64 [ %indvars.iv.next.i.i, %.lr.ph16.i.i ], [ 0, %.lr.ph.i.i ]
  %40 = load ptr, ptr %37, align 8
  %41 = getelementptr inbounds nuw %union.ListCell, ptr %40, i64 %indvars.iv.i.i
  %42 = load ptr, ptr %41, align 8
  %43 = call zeroext i1 @cost_qual_eval_walker(ptr noundef %42, ptr noundef nonnull %5)
  %indvars.iv.next.i.i = add nuw nsw i64 %indvars.iv.i.i, 1
  %44 = load i32, ptr %36, align 4
  %45 = sext i32 %44 to i64
  %46 = icmp slt i64 %indvars.iv.next.i.i, %45
  br i1 %46, label %.lr.ph16.i.i, label %cost_qual_eval.exit.i.loopexit

cost_qual_eval.exit.i.loopexit:                   ; preds = %.lr.ph16.i.i
  %.sroa.033.0.copyload.pre = load double, ptr %35, align 8
  %.sroa.7.0..sroa_idx.phi.trans.insert = getelementptr inbounds nuw i8, ptr %5, i64 16
  %.sroa.7.0.copyload.pre = load double, ptr %.sroa.7.0..sroa_idx.phi.trans.insert, align 8
  br label %cost_qual_eval.exit.i

cost_qual_eval.exit.i:                            ; preds = %cost_qual_eval.exit.i.loopexit, %.lr.ph.i.i, %32
  %.sroa.7.0.copyload = phi double [ %.sroa.7.0.copyload.pre, %cost_qual_eval.exit.i.loopexit ], [ 0.000000e+00, %.lr.ph.i.i ], [ 0.000000e+00, %32 ]
  %.sroa.033.0.copyload = phi double [ %.sroa.033.0.copyload.pre, %cost_qual_eval.exit.i.loopexit ], [ 0.000000e+00, %.lr.ph.i.i ], [ 0.000000e+00, %32 ]
  call void @llvm.lifetime.end.p0(i64 24, ptr nonnull %5) #17
  %47 = getelementptr inbounds nuw i8, ptr %2, i64 304
  %48 = load double, ptr %47, align 8
  %49 = fadd double %.sroa.033.0.copyload, %48
  %50 = getelementptr inbounds nuw i8, ptr %2, i64 312
  %51 = load double, ptr %50, align 8
  %52 = fadd double %.sroa.7.0.copyload, %51
  br label %get_restriction_qual_cost.exit

53:                                               ; preds = %25
  %54 = getelementptr inbounds nuw i8, ptr %2, i64 304
  %.sroa.033.0.copyload35 = load double, ptr %54, align 8
  %.sroa.7.0..sroa_idx36 = getelementptr inbounds nuw i8, ptr %2, i64 312
  %.sroa.7.0.copyload37 = load double, ptr %.sroa.7.0..sroa_idx36, align 8
  br label %get_restriction_qual_cost.exit

get_restriction_qual_cost.exit:                   ; preds = %cost_qual_eval.exit.i, %53
  %.sroa.033.0 = phi double [ %.sroa.033.0.copyload35, %53 ], [ %49, %cost_qual_eval.exit.i ]
  %.sroa.7.0 = phi double [ %.sroa.7.0.copyload37, %53 ], [ %52, %cost_qual_eval.exit.i ]
  %55 = fadd double %.sroa.0.0.copyload, %.sroa.4.0.copyload
  %56 = fadd double %55, 0.000000e+00
  %57 = fadd double %56, %.sroa.033.0
  %58 = load double, ptr @cpu_tuple_cost, align 8
  %59 = fadd double %.sroa.7.0, %58
  %60 = getelementptr inbounds nuw i8, ptr %2, i64 200
  %61 = load double, ptr %60, align 8
  %62 = call double @llvm.fmuladd.f64(double %59, double %61, double 0.000000e+00)
  %63 = getelementptr inbounds nuw i8, ptr %0, i64 16
  %64 = load ptr, ptr %63, align 8
  %65 = getelementptr inbounds nuw i8, ptr %64, i64 24
  %66 = load double, ptr %65, align 8
  %67 = fadd double %57, %66
  %68 = getelementptr inbounds nuw i8, ptr %64, i64 32
  %69 = load double, ptr %68, align 8
  %70 = load double, ptr %27, align 8
  %71 = call double @llvm.fmuladd.f64(double %69, double %70, double %62)
  %72 = getelementptr inbounds nuw i8, ptr %0, i64 48
  store i32 0, ptr %72, align 8
  %73 = getelementptr inbounds nuw i8, ptr %0, i64 56
  store double %67, ptr %73, align 8
  %74 = fadd double %67, %71
  %75 = getelementptr inbounds nuw i8, ptr %0, i64 64
  store double %74, ptr %75, align 8
  ret void
}